target datalayout = "e-m:e-p270:32:32-p271:32:32-p272:64:64-i64:64-i128:128-f80:128-n8:16:32:64-S128"
target triple = "x86_64-pc-linux-gnu"

@sprepTrie = internal global ptr null, align 8
@stderr = external global ptr, align 8
@.str.2 = private unnamed_addr constant [41 x i8] c"Could not set the value for code point.\0A\00", align 1
@.str.3 = private unnamed_addr constant [62 x i8] c"trieWord cannot contain value greater than threshold 0x%04X.\0A\00", align 1
@.str.6 = private unnamed_addr constant [52 x i8] c"trieWord cannot contain value greater than 0xFFFF.\0A\00", align 1
@.str.7 = private unnamed_addr constant [42 x i8] c"Value for codepoint \\U%08X already set!.\0A\00", align 1
@.str.8 = private unnamed_addr constant [48 x i8] c"Could not set the value for code point \\U%08X.\0A\00", align 1
@.str.9 = private unnamed_addr constant [42 x i8] c"Value for certain codepoint already set.\0A\00", align 1

; Function Attrs: nounwind uwtable
define dso_local void @storeRange(i32 noundef %0, i32 noundef %1, i32 noundef %2, ptr noundef %3) #0 {
  %5 = alloca i32, align 4
  %6 = alloca i32, align 4
  %7 = alloca i32, align 4
  %8 = alloca ptr, align 8
  %9 = alloca i16, align 2
  %10 = alloca i32, align 4
  %11 = alloca i32, align 4
  store i32 %0, ptr %5, align 4, !tbaa !10
  store i32 %1, ptr %6, align 4, !tbaa !10
  store i32 %2, ptr %7, align 4, !tbaa !10
  store ptr %3, ptr %8, align 8, !tbaa !18
  call void @llvm.lifetime.start.p0(i64 2, ptr %9) #9
  store i16 0, ptr %9, align 2, !tbaa !21
  %12 = load i32, ptr %7, align 4, !tbaa !10
  %13 = add i32 65520, %12
  %14 = icmp sgt i32 %13, 65535
  br i1 %14, label %15, label %18

15:                                               ; preds = %4
  %16 = load ptr, ptr @stderr, align 8, !tbaa !14
  %17 = call i32 (ptr, ptr, ...) @fprintf(ptr noundef %16, ptr noundef @.str.6) #9
  call void @exit(i32 noundef 12) #11
  unreachable

18:                                               ; preds = %4
  %19 = load i32, ptr %7, align 4, !tbaa !10
  %20 = add i32 65520, %19
  %21 = trunc i32 %20 to i16
  store i16 %21, ptr %9, align 2, !tbaa !21
  %22 = load i32, ptr %5, align 4, !tbaa !10
  %23 = load i32, ptr %6, align 4, !tbaa !10
  %24 = icmp eq i32 %22, %23
  br i1 %24, label %25, label %85

25:                                               ; preds = %18
  call void @llvm.lifetime.start.p0(i64 4, ptr %10) #9
  %26 = load ptr, ptr @sprepTrie, align 8, !tbaa !12
  %27 = load i32, ptr %5, align 4, !tbaa !10
  %28 = call i32 @utrie_get32_77(ptr noundef %26, i32 noundef %27, ptr noundef null)
  store i32 %28, ptr %10, align 4, !tbaa !10
  %29 = load i32, ptr %10, align 4, !tbaa !10
  %30 = icmp ugt i32 %29, 0
  br i1 %30, label %31, label %70

31:                                               ; preds = %25
  %32 = load i32, ptr %10, align 4, !tbaa !10
  %33 = icmp ult i32 %32, 65520
  br i1 %33, label %34, label %59

34:                                               ; preds = %31
  %35 = load i32, ptr %7, align 4, !tbaa !10
  %36 = icmp eq i32 %35, 2
  br i1 %36, label %37, label %59

37:                                               ; preds = %34
  %38 = load i32, ptr %10, align 4, !tbaa !10
  %39 = add i32 %38, 1
  store i32 %39, ptr %10, align 4, !tbaa !10
  %40 = load i32, ptr %10, align 4, !tbaa !10
  %41 = trunc i32 %40 to i16
  store i16 %41, ptr %9, align 2, !tbaa !21
  %42 = load i16, ptr %9, align 2, !tbaa !21
  %43 = zext i16 %42 to i32
  %44 = icmp slt i32 %43, 65520
  br i1 %44, label %45, label %56

45:                                               ; preds = %37
  %46 = load ptr, ptr @sprepTrie, align 8, !tbaa !12
  %47 = load i32, ptr %5, align 4, !tbaa !10
  %48 = load i16, ptr %9, align 2, !tbaa !21
  %49 = zext i16 %48 to i32
  %50 = call signext i8 @utrie_set32_77(ptr noundef %46, i32 noundef %47, i32 noundef %49)
  %51 = icmp ne i8 %50, 0
  br i1 %51, label %55, label %52

52:                                               ; preds = %45
  %53 = load ptr, ptr @stderr, align 8, !tbaa !14
  %54 = call i32 (ptr, ptr, ...) @fprintf(ptr noundef %53, ptr noundef @.str.2) #9
  call void @exit(i32 noundef 1) #11
  unreachable

55:                                               ; preds = %45
  store i32 1, ptr %11, align 4
  br label %82

56:                                               ; preds = %37
  %57 = load ptr, ptr @stderr, align 8, !tbaa !14
  %58 = call i32 (ptr, ptr, ...) @fprintf(ptr noundef %57, ptr noundef @.str.3, i32 noundef 65520) #9
  call void @exit(i32 noundef 12) #11
  unreachable

59:                                               ; preds = %34, %31
  %60 = load i32, ptr %10, align 4, !tbaa !10
  %61 = load i16, ptr %9, align 2, !tbaa !21
  %62 = zext i16 %61 to i32
  %63 = icmp ne i32 %60, %62
  br i1 %63, label %64, label %68

64:                                               ; preds = %59
  %65 = load ptr, ptr @stderr, align 8, !tbaa !14
  %66 = load i32, ptr %5, align 4, !tbaa !10
  %67 = call i32 (ptr, ptr, ...) @fprintf(ptr noundef %65, ptr noundef @.str.7, i32 noundef %66) #9
  call void @exit(i32 noundef 1) #11
  unreachable

68:                                               ; preds = %59
  br label %69

69:                                               ; preds = %68
  br label %70

70:                                               ; preds = %69, %25
  %71 = load ptr, ptr @sprepTrie, align 8, !tbaa !12
  %72 = load i32, ptr %5, align 4, !tbaa !10
  %73 = load i16, ptr %9, align 2, !tbaa !21
  %74 = zext i16 %73 to i32
  %75 = call signext i8 @utrie_set32_77(ptr noundef %71, i32 noundef %72, i32 noundef %74)
  %76 = icmp ne i8 %75, 0
  br i1 %76, label %81, label %77

77:                                               ; preds = %70
  %78 = load ptr, ptr @stderr, align 8, !tbaa !14
  %79 = load i32, ptr %5, align 4, !tbaa !10
  %80 = call i32 (ptr, ptr, ...) @fprintf(ptr noundef %78, ptr noundef @.str.8, i32 noundef %79) #9
  call void @exit(i32 noundef 1) #11
  unreachable

81:                                               ; preds = %70
  store i32 0, ptr %11, align 4
  br label %82

82:                                               ; preds = %81, %55
  call void @llvm.lifetime.end.p0(i64 4, ptr %10) #9
  %83 = load i32, ptr %11, align 4
  switch i32 %83, label %99 [
    i32 0, label %84
  ]

84:                                               ; preds = %82
  br label %98

85:                                               ; preds = %18
  %86 = load ptr, ptr @sprepTrie, align 8, !tbaa !12
  %87 = load i32, ptr %5, align 4, !tbaa !10
  %88 = load i32, ptr %6, align 4, !tbaa !10
  %89 = add i32 %88, 1
  %90 = load i16, ptr %9, align 2, !tbaa !21
  %91 = zext i16 %90 to i32
  %92 = call signext i8 @utrie_setRange32_77(ptr noundef %86, i32 noundef %87, i32 noundef %89, i32 noundef %91, i8 noundef signext 0)
  %93 = icmp ne i8 %92, 0
  br i1 %93, label %97, label %94

94:                                               ; preds = %85
  %95 = load ptr, ptr @stderr, align 8, !tbaa !14
  %96 = call i32 (ptr, ptr, ...) @fprintf(ptr noundef %95, ptr noundef @.str.9) #9
  call void @exit(i32 noundef 12) #11
  unreachable

97:                                               ; preds = %85
  br label %98

98:                                               ; preds = %97, %84
  store i32 0, ptr %11, align 4
  br label %99

99:                                               ; preds = %98, %82
  call void @llvm.lifetime.end.p0(i64 2, ptr %9) #9
  %100 = load i32, ptr %11, align 4
  switch i32 %100, label %102 [
    i32 0, label %101
    i32 1, label %101
  ]

101:                                              ; preds = %99, %99
  ret void

102:                                              ; preds = %99
  unreachable
}