; Function Attrs: nounwind uwtable
define dso_local void @storeRange(i32 noundef %0, i32 noundef %1, i32 noundef %2, ptr noundef readnone captures(none) %3) local_unnamed_addr #0 {
  %5 = add i32 %2, 65520
  %6 = icmp sgt i32 %5, 65535
  br i1 %6, label %7, label %10

7:                                                ; preds = %4
  %8 = load ptr, ptr @stderr, align 8, !tbaa !12
  %9 = tail call i64 @fwrite(ptr nonnull @.str.6, i64 51, i64 1, ptr %8) #15
  tail call void @exit(i32 noundef 12) #16
  unreachable

10:                                               ; preds = %4
  %11 = icmp eq i32 %0, %1
  %12 = load ptr, ptr @sprepTrie, align 8, !tbaa !9
  br i1 %11, label %13, label %41

13:                                               ; preds = %10
  %14 = tail call i32 @utrie_get32_77(ptr noundef %12, i32 noundef %0, ptr noundef null) #13
  %.not29 = icmp eq i32 %14, 0
  br i1 %.not29, label %._crit_edge, label %15

._crit_edge:                                      ; preds = %13
  %.pre = and i32 %5, 65535
  br label %35

15:                                               ; preds = %13
  %16 = icmp ult i32 %14, 65520
  %17 = icmp eq i32 %2, 2
  %or.cond = and i1 %17, %16
  br i1 %or.cond, label %18, label %30

18:                                               ; preds = %15
  %19 = icmp samesign ult i32 %14, 65519
  br i1 %19, label %20, label %27

20:                                               ; preds = %18
  %21 = add nuw nsw i32 %14, 1
  %22 = load ptr, ptr @sprepTrie, align 8, !tbaa !9
  %23 = tail call signext i8 @utrie_set32_77(ptr noundef %22, i32 noundef %0, i32 noundef %21) #13
  %.not32 = icmp eq i8 %23, 0
  br i1 %.not32, label %24, label %.critedge

24:                                               ; preds = %20
  %25 = load ptr, ptr @stderr, align 8, !tbaa !12
  %26 = tail call i64 @fwrite(ptr nonnull @.str.2, i64 40, i64 1, ptr %25) #15
  tail call void @exit(i32 noundef 1) #16
  unreachable

27:                                               ; preds = %18
  %28 = load ptr, ptr @stderr, align 8, !tbaa !12
  %29 = tail call i32 (ptr, ptr, ...) @fprintf(ptr noundef %28, ptr noundef nonnull @.str.3, i32 noundef 65520) #17
  tail call void @exit(i32 noundef 12) #16
  unreachable

30:                                               ; preds = %15
  %31 = and i32 %5, 65535
  %.not30 = icmp eq i32 %14, %31
  br i1 %.not30, label %35, label %32

32:                                               ; preds = %30
  %33 = load ptr, ptr @stderr, align 8, !tbaa !12
  %34 = tail call i32 (ptr, ptr, ...) @fprintf(ptr noundef %33, ptr noundef nonnull @.str.7, i32 noundef %0) #17
  tail call void @exit(i32 noundef 1) #16
  unreachable

35:                                               ; preds = %._crit_edge, %30
  %.pre-phi = phi i32 [ %.pre, %._crit_edge ], [ %31, %30 ]
  %36 = load ptr, ptr @sprepTrie, align 8, !tbaa !9
  %37 = tail call signext i8 @utrie_set32_77(ptr noundef %36, i32 noundef %0, i32 noundef %.pre-phi) #13
  %.not31 = icmp eq i8 %37, 0
  br i1 %.not31, label %38, label %.critedge

38:                                               ; preds = %35
  %39 = load ptr, ptr @stderr, align 8, !tbaa !12
  %40 = tail call i32 (ptr, ptr, ...) @fprintf(ptr noundef %39, ptr noundef nonnull @.str.8, i32 noundef %0) #17
  tail call void @exit(i32 noundef 1) #16
  unreachable

41:                                               ; preds = %10
  %42 = add i32 %1, 1
  %43 = and i32 %5, 65535
  %44 = tail call signext i8 @utrie_setRange32_77(ptr noundef %12, i32 noundef %0, i32 noundef %42, i32 noundef %43, i8 noundef signext 0) #13
  %.not = icmp eq i8 %44, 0
  br i1 %.not, label %45, label %.critedge

45:                                               ; preds = %41
  %46 = load ptr, ptr @stderr, align 8, !tbaa !12
  %47 = tail call i64 @fwrite(ptr nonnull @.str.9, i64 41, i64 1, ptr %46) #15
  tail call void @exit(i32 noundef 12) #16
  unreachable

.critedge:                                        ; preds = %20, %41, %35
  ret void
}